target datalayout = "e-m:e-p270:32:32-p271:32:32-p272:64:64-i64:64-i128:128-f80:128-n8:16:32:64-S128"
target triple = "x86_64-pc-linux-gnu"

%struct.Curl_cfilter = type { ptr, ptr, ptr, ptr, i32, i8 }
%struct.Curl_cftype = type { ptr, i32, i32, ptr, ptr, ptr, ptr, ptr, ptr, ptr, ptr, ptr, ptr, ptr, ptr, ptr }

; Function Attrs: nounwind uwtable
define dso_local zeroext i1 @Curl_conn_cf_is_ssl(ptr noundef %0) #0 {
  %2 = alloca i1, align 1
  %3 = alloca ptr, align 8
  store ptr %0, ptr %3, align 8, !tbaa !4
  br label %4

4:                                                ; preds = %26, %1
  %5 = load ptr, ptr %3, align 8, !tbaa !4
  %6 = icmp ne ptr %5, null
  br i1 %6, label %7, label %30

7:                                                ; preds = %4
  %8 = load ptr, ptr %3, align 8, !tbaa !4
  %9 = getelementptr inbounds nuw %struct.Curl_cfilter, ptr %8, i32 0, i32 0
  %10 = load ptr, ptr %9, align 8, !tbaa !24
  %11 = getelementptr inbounds nuw %struct.Curl_cftype, ptr %10, i32 0, i32 1
  %12 = load i32, ptr %11, align 8, !tbaa !145
  %13 = and i32 %12, 2
  %14 = icmp ne i32 %13, 0
  br i1 %14, label %15, label %16

15:                                               ; preds = %7
  store i1 true, ptr %2, align 1
  br label %31

16:                                               ; preds = %7
  %17 = load ptr, ptr %3, align 8, !tbaa !4
  %18 = getelementptr inbounds nuw %struct.Curl_cfilter, ptr %17, i32 0, i32 0
  %19 = load ptr, ptr %18, align 8, !tbaa !24
  %20 = getelementptr inbounds nuw %struct.Curl_cftype, ptr %19, i32 0, i32 1
  %21 = load i32, ptr %20, align 8, !tbaa !145
  %22 = and i32 %21, 1
  %23 = icmp ne i32 %22, 0
  br i1 %23, label %24, label %25

24:                                               ; preds = %16
  store i1 false, ptr %2, align 1
  br label %31

25:                                               ; preds = %16
  br label %26

26:                                               ; preds = %25
  %27 = load ptr, ptr %3, align 8, !tbaa !4
  %28 = getelementptr inbounds nuw %struct.Curl_cfilter, ptr %27, i32 0, i32 1
  %29 = load ptr, ptr %28, align 8, !tbaa !19
  store ptr %29, ptr %3, align 8, !tbaa !4
  br label %4, !llvm.loop !147

30:                                               ; preds = %4
  store i1 false, ptr %2, align 1
  br label %31

31:                                               ; preds = %30, %24, %15
  %32 = load i1, ptr %2, align 1
  ret i1 %32
}