; Function Attrs: nofree norecurse nosync nounwind memory(read, inaccessiblemem: none) uwtable
define dso_local noundef zeroext i1 @Curl_conn_cf_is_ssl(ptr noundef readonly %0) local_unnamed_addr #7 {
  %.not8 = icmp eq ptr %0, null
  br i1 %.not8, label %._crit_edge, label %.lr.ph

.lr.ph:                                           ; preds = %1, %6
  %.09 = phi ptr [ %8, %6 ], [ %0, %1 ]
  %2 = load ptr, ptr %.09, align 8, !tbaa !15
  %3 = getelementptr inbounds nuw i8, ptr %2, i64 8
  %4 = load i32, ptr %3, align 8, !tbaa !134
  %5 = and i32 %4, 3
  %or.cond.not.not = icmp eq i32 %5, 0
  br i1 %or.cond.not.not, label %6, label %._crit_edge.loopexit

6:                                                ; preds = %.lr.ph
  %7 = getelementptr inbounds nuw i8, ptr %.09, i64 8
  %8 = load ptr, ptr %7, align 8, !tbaa !8
  %.not = icmp eq ptr %8, null
  br i1 %.not, label %._crit_edge.loopexit, label %.lr.ph, !llvm.loop !135

._crit_edge.loopexit:                             ; preds = %6, %.lr.ph
  %9 = and i32 %4, 2
  %.not6.not.le = icmp ne i32 %9, 0
  br label %._crit_edge

._crit_edge:                                      ; preds = %._crit_edge.loopexit, %1
  %.05 = phi i1 [ false, %1 ], [ %.not6.not.le, %._crit_edge.loopexit ]
  ret i1 %.05
}